target datalayout = "e-m:e-p270:32:32-p271:32:32-p272:64:64-i64:64-i128:128-f80:128-n8:16:32:64-S128"
target triple = "x86_64-pc-linux-gnu"

%"class.LIEF::DEX::Class" = type <{ %"class.LIEF::Object", %"class.std::__cxx11::basic_string", i32, [4 x i8], ptr, %"class.std::vector", %"class.std::vector.3", %"class.std::__cxx11::basic_string", i32, [4 x i8] }>
%"class.LIEF::Object" = type { ptr }
%"class.std::vector" = type { %"struct.std::_Vector_base" }
%"struct.std::_Vector_base" = type { %"struct.std::_Vector_base<LIEF::DEX::Method *, std::allocator<LIEF::DEX::Method *>>::_Vector_impl" }
%"struct.std::_Vector_base<LIEF::DEX::Method *, std::allocator<LIEF::DEX::Method *>>::_Vector_impl" = type { %"struct.std::_Vector_base<LIEF::DEX::Method *, std::allocator<LIEF::DEX::Method *>>::_Vector_impl_data" }
%"struct.std::_Vector_base<LIEF::DEX::Method *, std::allocator<LIEF::DEX::Method *>>::_Vector_impl_data" = type { ptr, ptr, ptr }
%"class.std::vector.3" = type { %"struct.std::_Vector_base.4" }
%"struct.std::_Vector_base.4" = type { %"struct.std::_Vector_base<LIEF::DEX::Field *, std::allocator<LIEF::DEX::Field *>>::_Vector_impl" }
%"struct.std::_Vector_base<LIEF::DEX::Field *, std::allocator<LIEF::DEX::Field *>>::_Vector_impl" = type { %"struct.std::_Vector_base<LIEF::DEX::Field *, std::allocator<LIEF::DEX::Field *>>::_Vector_impl_data" }
%"struct.std::_Vector_base<LIEF::DEX::Field *, std::allocator<LIEF::DEX::Field *>>::_Vector_impl_data" = type { ptr, ptr, ptr }
%"class.std::__cxx11::basic_string" = type { %"struct.std::__cxx11::basic_string<char>::_Alloc_hider", i64, %union.anon }
%"struct.std::__cxx11::basic_string<char>::_Alloc_hider" = type { ptr }
%union.anon = type { i64, [8 x i8] }
%"class.LIEF::ref_iterator.18" = type { ptr, %"class.__gnu_cxx::__normal_iterator.19", i64 }
%"class.__gnu_cxx::__normal_iterator.19" = type { ptr }

; Function Attrs: mustprogress nounwind uwtable
define linkonce_odr hidden void @_ZN9__gnu_cxx17__normal_iteratorIPPN4LIEF3DEX5FieldESt6vectorIS4_SaIS4_EEEC2ERKS5_(ptr noundef nonnull align 8 dereferenceable(8) %0, ptr noundef nonnull align 8 dereferenceable(8) %1) unnamed_addr #3 comdat align 2 {
  %3 = alloca ptr, align 8
  %4 = alloca ptr, align 8
  store ptr %0, ptr %3, align 8
  store ptr %1, ptr %4, align 8
  %5 = load ptr, ptr %3, align 8
  %6 = getelementptr inbounds %"class.__gnu_cxx::__normal_iterator.19", ptr %5, i32 0, i32 0
  %7 = load ptr, ptr %4, align 8
  %8 = load ptr, ptr %7, align 8
  store ptr %8, ptr %6, align 8
  ret void
}

; Function Attrs: mustprogress nounwind uwtable
define linkonce_odr hidden ptr @_ZNSt6vectorIPN4LIEF3DEX5FieldESaIS3_EE5beginEv(ptr noundef nonnull align 8 dereferenceable(24) %0) #3 comdat align 2 {
  %2 = alloca %"class.__gnu_cxx::__normal_iterator.19", align 8
  %3 = alloca ptr, align 8
  store ptr %0, ptr %3, align 8
  %4 = load ptr, ptr %3, align 8
  %5 = getelementptr inbounds %"struct.std::_Vector_base.4", ptr %4, i32 0, i32 0
  %6 = getelementptr inbounds %"struct.std::_Vector_base<LIEF::DEX::Field *, std::allocator<LIEF::DEX::Field *>>::_Vector_impl_data", ptr %5, i32 0, i32 0
  call void @_ZN9__gnu_cxx17__normal_iteratorIPPN4LIEF3DEX5FieldESt6vectorIS4_SaIS4_EEEC2ERKS5_(ptr noundef nonnull align 8 dereferenceable(8) %2, ptr noundef nonnull align 8 dereferenceable(8) %6) #12
  %7 = getelementptr inbounds %"class.__gnu_cxx::__normal_iterator.19", ptr %2, i32 0, i32 0
  %8 = load ptr, ptr %7, align 8
  ret ptr %8
}

; Function Attrs: mustprogress nounwind uwtable
define linkonce_odr ptr @_ZSt5beginISt6vectorIPN4LIEF3DEX5FieldESaIS4_EEEDTcldtfp_5beginEERT_(ptr noundef nonnull align 8 dereferenceable(24) %0) #3 comdat {
  %2 = alloca %"class.__gnu_cxx::__normal_iterator.19", align 8
  %3 = alloca ptr, align 8
  store ptr %0, ptr %3, align 8
  %4 = load ptr, ptr %3, align 8
  %5 = call ptr @_ZNSt6vectorIPN4LIEF3DEX5FieldESaIS3_EE5beginEv(ptr noundef nonnull align 8 dereferenceable(24) %4) #12
  %6 = getelementptr inbounds %"class.__gnu_cxx::__normal_iterator.19", ptr %2, i32 0, i32 0
  store ptr %5, ptr %6, align 8
  %7 = getelementptr inbounds %"class.__gnu_cxx::__normal_iterator.19", ptr %2, i32 0, i32 0
  %8 = load ptr, ptr %7, align 8
  ret ptr %8
}

; Function Attrs: mustprogress nounwind uwtable
define linkonce_odr hidden void @_ZN9__gnu_cxx17__normal_iteratorIPPN4LIEF3DEX5FieldESt6vectorIS4_SaIS4_EEEC2Ev(ptr noundef nonnull align 8 dereferenceable(8) %0) unnamed_addr #3 comdat align 2 {
  %2 = alloca ptr, align 8
  store ptr %0, ptr %2, align 8
  %3 = load ptr, ptr %2, align 8
  %4 = getelementptr inbounds %"class.__gnu_cxx::__normal_iterator.19", ptr %3, i32 0, i32 0
  store ptr null, ptr %4, align 8
  ret void
}

; Function Attrs: mustprogress uwtable
define linkonce_odr hidden void @_ZN4LIEF12ref_iteratorIRSt6vectorIPNS_3DEX5FieldESaIS4_EES4_N9__gnu_cxx17__normal_iteratorIPS4_S6_EEEC2ES7_(ptr noundef nonnull align 8 dereferenceable(24) %0, ptr noundef nonnull align 8 dereferenceable(24) %1) unnamed_addr #0 comdat align 2 {
  %3 = alloca ptr, align 8
  %4 = alloca ptr, align 8
  %5 = alloca %"class.__gnu_cxx::__normal_iterator.19", align 8
  store ptr %0, ptr %3, align 8
  store ptr %1, ptr %4, align 8
  %6 = load ptr, ptr %3, align 8
  %7 = getelementptr inbounds %"class.LIEF::ref_iterator.18", ptr %6, i32 0, i32 0
  %8 = load ptr, ptr %4, align 8
  store ptr %8, ptr %7, align 8
  %9 = getelementptr inbounds %"class.LIEF::ref_iterator.18", ptr %6, i32 0, i32 1
  call void @_ZN9__gnu_cxx17__normal_iteratorIPPN4LIEF3DEX5FieldESt6vectorIS4_SaIS4_EEEC2Ev(ptr noundef nonnull align 8 dereferenceable(8) %9) #12
  %10 = getelementptr inbounds %"class.LIEF::ref_iterator.18", ptr %6, i32 0, i32 2
  store i64 0, ptr %10, align 8
  %11 = getelementptr inbounds %"class.LIEF::ref_iterator.18", ptr %6, i32 0, i32 0
  %12 = load ptr, ptr %11, align 8
  %13 = call ptr @_ZSt5beginISt6vectorIPN4LIEF3DEX5FieldESaIS4_EEEDTcldtfp_5beginEERT_(ptr noundef nonnull align 8 dereferenceable(24) %12)
  %14 = getelementptr inbounds %"class.__gnu_cxx::__normal_iterator.19", ptr %5, i32 0, i32 0
  store ptr %13, ptr %14, align 8
  %15 = getelementptr inbounds %"class.LIEF::ref_iterator.18", ptr %6, i32 0, i32 1
  call void @llvm.memcpy.p0.p0.i64(ptr align 8 %15, ptr align 8 %5, i64 8, i1 false)
  ret void
}

; Function Attrs: mustprogress uwtable
define void @_ZN4LIEF3DEX5Class6fieldsEv(ptr dead_on_unwind noalias writable sret(%"class.LIEF::ref_iterator.18") align 8 %0, ptr noundef nonnull align 8 dereferenceable(140) %1) #0 align 2 {
  %3 = alloca ptr, align 8
  %4 = alloca ptr, align 8
  store ptr %0, ptr %3, align 8
  store ptr %1, ptr %4, align 8
  %5 = load ptr, ptr %4, align 8
  %6 = getelementptr inbounds %"class.LIEF::DEX::Class", ptr %5, i32 0, i32 6
  call void @_ZN4LIEF12ref_iteratorIRSt6vectorIPNS_3DEX5FieldESaIS4_EES4_N9__gnu_cxx17__normal_iteratorIPS4_S6_EEEC2ES7_(ptr noundef nonnull align 8 dereferenceable(24) %0, ptr noundef nonnull align 8 dereferenceable(24) %6)
  ret void
}