; Function Attrs: mustprogress nofree norecurse nosync nounwind willreturn memory(argmem: readwrite) uwtable
define void @_ZN4LIEF3DEX5Class6fieldsEv(ptr dead_on_unwind noalias nocapture writable writeonly sret(%"class.LIEF::ref_iterator.18") align 8 %0, ptr noundef nonnull align 8 dereferenceable(140) %1) local_unnamed_addr #5 align 2 {
  %3 = getelementptr inbounds i8, ptr %1, i64 80
  store ptr %3, ptr %0, align 8
  %4 = getelementptr inbounds i8, ptr %0, i64 8
  %5 = getelementptr inbounds i8, ptr %0, i64 16
  store i64 0, ptr %5, align 8
  %6 = load ptr, ptr %3, align 8
  store ptr %6, ptr %4, align 8
  ret void
}